; Function Attrs: mustprogress nofree norecurse nosync nounwind willreturn memory(argmem: write) uwtable
define void @_ZN2cv3reg9MapAffineC2Ev(ptr noundef nonnull writeonly align 8 captures(none) dereferenceable(56) initializes((0, 56)) %0) unnamed_addr #0 align 2 personality ptr @__gxx_personality_v0 {
.critedge:
  store ptr getelementptr inbounds nuw inrange(-16, 56) (i8, ptr @_ZTVN2cv3reg9MapAffineE, i64 16), ptr %0, align 8, !tbaa !3
  %1 = getelementptr inbounds nuw i8, ptr %0, i64 8
  %2 = getelementptr inbounds nuw i8, ptr %0, i64 16
  tail call void @llvm.memset.p0.i64(ptr noundef nonnull align 8 dereferenceable(16) %2, i8 0, i64 16, i1 false), !tbaa !6, !alias.scope !9
  store double 1.000000e+00, ptr %1, align 8, !tbaa !6, !alias.scope !9
  %3 = getelementptr inbounds nuw i8, ptr %0, i64 32
  store double 1.000000e+00, ptr %3, align 8, !tbaa !6, !alias.scope !9
  %4 = getelementptr inbounds nuw i8, ptr %0, i64 40
  tail call void @llvm.memset.p0.i64(ptr noundef nonnull align 8 dereferenceable(16) %4, i8 0, i64 16, i1 false), !tbaa !6
  ret void
}